Certificate:
    Data:
        Version: 3 (0x2)
        Serial Number:
            77:4f:3f:98:be:dd:19:5b:fd:59:13:9a:f1:75:7d:a5
        Signature Algorithm: sha256WithRSAEncryption
        Issuer: CN=Easy-RSA CA
        Validity
            Not Before: Oct 29 10:25:09 2020 GMT
            Not After : Feb  1 10:25:09 2023 GMT
        Subject: CN=test
        Subject Public Key Info:
            Public Key Algorithm: rsaEncryption
                RSA Public-Key: (2048 bit)
                Modulus:
                    00:d8:a2:ee:f2:06:f8:6c:30:37:d1:02:0a:6e:bd:
                    14:22:61:5e:d4:30:a7:44:88:d5:25:a6:41:fe:54:
                    a3:f7:cb:13:f0:b3:74:1f:83:7f:1b:fb:8b:b8:34:
                    eb:8f:40:dc:8f:cf:6e:43:62:19:69:25:cb:0c:25:
                    b1:23:8c:1d:e7:68:2d:28:1f:01:cc:2c:45:ad:f8:
                    1e:bb:67:86:b3:ec:dd:6c:c4:56:30:21:e9:01:83:
                    bd:25:7c:39:dc:4a:83:de:cb:1b:c5:a0:8b:2e:c9:
                    46:34:a6:fa:4e:be:9e:ab:5c:48:c9:d2:fa:99:b7:
                    1d:1c:2d:d8:76:79:6c:c7:0b:8e:f1:e5:88:bf:e1:
                    03:d7:77:89:d7:67:38:f5:15:cf:29:88:7e:4f:16:
                    42:ce:dc:b8:7f:ac:ed:4b:27:1f:75:70:cb:3e:2b:
                    f4:45:a2:88:99:a4:60:e6:ed:d3:d7:c2:3e:98:f5:
                    a9:64:1f:8d:e3:fb:c7:0b:fb:dd:90:67:4c:3d:bc:
                    fa:75:f9:88:17:eb:f1:b0:42:8e:3c:a9:8a:f3:d0:
                    60:51:29:7e:c7:2e:e9:fe:a6:e2:67:be:69:14:1f:
                    74:3e:23:7a:5d:a0:6b:09:58:ca:c3:ba:de:30:bc:
                    ea:2a:06:04:f2:df:8e:51:0c:d4:cf:64:4d:af:76:
                    1c:8d
                Exponent: 65537 (0x10001)
        X509v3 extensions:
            X509v3 Basic Constraints: 
                CA:FALSE
            X509v3 Subject Key Identifier: 
                AB:F7:AA:8C:06:45:70:9B:AF:62:FD:EA:8A:64:9A:AD:72:93:4F:F6
            X509v3 Authority Key Identifier: 
                keyid:0A:5B:2D:6F:C7:17:29:F0:B6:8B:F5:97:2E:20:80:AD:D6:13:CE:2C
                DirName:/CN=Easy-RSA CA
                serial:36:C6:B9:96:5E:DC:E7:91:19:37:4A:2C:40:9A:B0:6F:0E:1A:77:36

            X509v3 Extended Key Usage: 
                TLS Web Client Authentication
            X509v3 Key Usage: 
                Digital Signature
    Signature Algorithm: sha256WithRSAEncryption
         b9:a9:e0:fe:ac:53:69:8c:62:7b:ac:d7:bd:39:e1:1f:72:14:
         88:27:fc:fd:36:31:5b:e3:36:24:8c:9b:e4:57:51:e1:52:14:
         c1:02:65:97:86:30:38:80:db:7e:f1:4f:7f:d0:5a:3d:20:42:
         e5:9c:cc:7d:21:c2:56:02:74:78:4d:5c:a1:9b:1d:6f:61:d1:
         15:28:7c:61:8e:94:87:00:03:8f:95:01:d5:74:1a:39:2b:8b:
         95:22:c8:2e:03:fb:d0:e3:f0:2b:07:b0:45:12:8a:cc:dc:46:
         a6:49:e1:af:b3:93:e3:ae:a8:52:74:9e:bf:0f:10:c2:e2:d8:
         63:be:e5:d4:63:62:d3:58:7a:e5:0b:b3:5d:b8:07:55:df:32:
         f8:15:9e:42:26:0c:a4:bc:7a:a9:03:a0:b8:3f:d3:8b:43:f3:
         ed:9f:cd:3e:4c:92:ec:25:87:c1:dc:de:0e:e7:7c:fb:f9:e0:
         36:42:1c:0a:9d:f9:5c:dd:93:6b:e7:10:ff:14:93:cf:e9:16:
         b7:26:c7:9b:e5:20:23:ff:db:6a:51:93:76:d8:56:95:3a:98:
         0d:c9:bf:81:ce:11:98:c7:55:db:76:67:bb:18:f3:c4:de:3e:
         c7:5d:1b:e9:16:31:23:40:a6:50:27:18:99:41:c0:12:f3:c9:
         f9:09:dd:10
-----BEGIN CERTIFICATE-----
MIIDUjCCAjqgAwIBAgIQd08/mL7dGVv9WROa8XV9pTANBgkqhkiG9w0BAQsFADAW
MRQwEgYDVQQDDAtFYXN5LVJTQSBDQTAeFw0yMDEwMjkxMDI1MDlaFw0yMzAyMDEx
MDI1MDlaMA8xDTALBgNVBAMMBHRlc3QwggEiMA0GCSqGSIb3DQEBAQUAA4IBDwAw
ggEKAoIBAQDYou7yBvhsMDfRAgpuvRQiYV7UMKdEiNUlpkH+VKP3yxPws3Qfg38b
+4u4NOuPQNyPz25DYhlpJcsMJbEjjB3naC0oHwHMLEWt+B67Z4az7N1sxFYwIekB
g70lfDncSoPeyxvFoIsuyUY0pvpOvp6rXEjJ0vqZtx0cLdh2eWzHC47x5Yi/4QPX
d4nXZzj1Fc8piH5PFkLO3Lh/rO1LJx91cMs+K/RFooiZpGDm7dPXwj6Y9alkH43j
+8cL+92QZ0w9vPp1+YgX6/GwQo48qYrz0GBRKX7HLun+puJnvmkUH3Q+I3pdoGsJ
WMrDut4wvOoqBgTy345RDNTPZE2vdhyNAgMBAAGjgaIwgZ8wCQYDVR0TBAIwADAd
BgNVHQ4EFgQUq/eqjAZFcJuvYv3qimSarXKTT/YwUQYDVR0jBEowSIAUClstb8cX
KfC2i/WXLiCArdYTziyhGqQYMBYxFDASBgNVBAMMC0Vhc3ktUlNBIENBghQ2xrmW
XtznkRk3SixAmrBvDhp3NjATBgNVHSUEDDAKBggrBgEFBQcDAjALBgNVHQ8EBAMC
B4AwDQYJKoZIhvcNAQELBQADggEBALmp4P6sU2mMYnus17054R9yFIgn/P02MVvj
NiSMm+RXUeFSFMECZZeGMDiA237xT3/QWj0gQuWczH0hwlYCdHhNXKGbHW9h0RUo
fGGOlIcAA4+VAdV0Gjkri5UiyC4D+9Dj8CsHsEUSiszcRqZJ4a+zk+OuqFJ0nr8P
EMLi2GO+5dRjYtNYeuULs124B1XfMvgVnkImDKS8eqkDoLg/04tD8+2fzT5Mkuwl
h8Hc3g7nfPv54DZCHAqd+Vzdk2vnEP8Uk8/pFrcmx5vlICP/22pRk3bYVpU6mA3J
v4HOEZjHVdt2Z7sY88TePsddG+kWMSNAplAnGJlBwBLzyfkJ3RA=
-----END CERTIFICATE-----
