Certificate:
    Data:
        Version: 3 (0x2)
        Serial Number:
            b2:7d:a3:a9:1b:30:31:78:6b:34:eb:25:e8:e1:61:a1
        Signature Algorithm: sha256WithRSAEncryption
        Issuer: CN=Easy-RSA CA
        Validity
            Not Before: Oct 29 10:20:25 2020 GMT
            Not After : Feb  1 10:20:25 2023 GMT
        Subject: CN=VPN.SERVERNAME.COM
        Subject Public Key Info:
            Public Key Algorithm: rsaEncryption
                RSA Public-Key: (2048 bit)
                Modulus:
                    00:b3:2b:81:5b:88:5a:71:6f:4b:c7:75:cf:8b:d2:
                    3a:c5:fe:67:49:0f:ff:39:dc:00:4c:7c:2c:41:99:
                    b6:57:46:58:f3:d9:d7:40:c3:ed:dc:b2:91:3a:78:
                    8a:bf:92:9f:23:10:0c:16:13:ce:60:aa:5a:cf:37:
                    52:38:47:9a:f4:d0:bb:df:23:1d:dc:b1:b9:b5:eb:
                    c3:9c:ea:80:7d:db:54:ab:bf:8a:a3:0c:c8:f0:73:
                    c0:bc:21:67:00:25:40:fe:0d:b6:a9:81:7c:d5:f7:
                    b7:6c:80:63:53:59:8d:12:3b:17:9b:8f:3a:9e:63:
                    3a:ea:6e:2b:56:cb:a8:4a:cb:94:2e:24:e6:2b:e0:
                    db:15:b2:49:27:a7:43:91:c5:03:68:2d:87:52:a6:
                    9a:20:d2:53:32:6e:4b:13:9c:4c:cc:2d:72:1f:d0:
                    54:56:36:f7:87:84:aa:d4:0d:b9:a9:e8:cd:21:20:
                    46:87:ff:4e:dd:a8:d9:17:66:8f:1c:3c:e2:0c:0a:
                    9e:f2:08:00:d6:45:2b:07:ae:b3:0b:04:b9:27:26:
                    b3:d2:7b:29:7d:9e:af:44:37:17:c4:97:ef:1a:2f:
                    64:e8:38:17:5c:fc:5d:db:fd:6c:f6:a0:34:a8:5d:
                    f7:fe:11:c2:1b:46:49:99:23:dc:f5:e5:00:d0:90:
                    1f:9b
                Exponent: 65537 (0x10001)
        X509v3 extensions:
            X509v3 Basic Constraints: 
                CA:FALSE
            X509v3 Subject Key Identifier: 
                5C:AB:7D:B3:9C:68:AD:98:2D:3E:5F:25:E4:47:75:9F:6D:CA:7E:4F
            X509v3 Authority Key Identifier: 
                keyid:0A:5B:2D:6F:C7:17:29:F0:B6:8B:F5:97:2E:20:80:AD:D6:13:CE:2C
                DirName:/CN=Easy-RSA CA
                serial:36:C6:B9:96:5E:DC:E7:91:19:37:4A:2C:40:9A:B0:6F:0E:1A:77:36

            X509v3 Extended Key Usage: 
                TLS Web Server Authentication
            X509v3 Key Usage: 
                Digital Signature, Key Encipherment
            X509v3 Subject Alternative Name: 
                DNS:VPN.SERVERNAME.COM
    Signature Algorithm: sha256WithRSAEncryption
         c5:eb:63:1f:9e:00:42:c9:1f:37:a7:93:4b:1b:13:00:87:5c:
         53:57:f9:06:ef:4e:30:74:24:6c:1c:34:1b:94:1c:80:7c:a9:
         02:28:91:f0:9b:af:ca:21:86:76:74:ef:a9:7c:6d:f9:bd:f6:
         9f:57:58:30:11:82:5e:7f:75:53:bc:75:fd:01:cb:0e:21:a7:
         e2:d2:05:23:ea:c7:31:30:fa:92:92:50:ce:9c:75:59:da:78:
         69:8d:ef:94:26:f5:4e:98:b0:da:82:0d:b5:1b:ba:03:48:99:
         61:ae:7c:1e:94:1b:4d:5d:e7:1e:13:5c:b3:c7:ba:a7:24:21:
         dd:3d:f1:86:16:0d:7b:06:57:a6:54:0e:b5:e2:a0:d5:34:70:
         70:d4:e9:1d:65:3a:f5:48:25:0b:0a:8a:43:67:c4:c5:23:14:
         1e:74:b9:7b:d1:fe:06:3c:72:d6:cd:5a:3d:14:4d:42:f6:70:
         ef:3d:c1:92:88:53:15:b5:56:a7:6d:05:6e:fb:c8:a5:4b:34:
         4c:42:ee:1e:1b:bd:13:62:db:8d:0e:b8:e2:46:d7:7d:f6:20:
         54:ca:1d:80:83:2c:04:30:fb:0a:42:01:51:d6:09:7c:ac:60:
         cf:92:be:da:ea:99:34:d5:69:a2:f0:c5:4e:51:c2:be:d3:30:
         77:f9:b6:6c
-----BEGIN CERTIFICATE-----
MIIDgDCCAmigAwIBAgIRALJ9o6kbMDF4azTrJejhYaEwDQYJKoZIhvcNAQELBQAw
FjEUMBIGA1UEAwwLRWFzeS1SU0EgQ0EwHhcNMjAxMDI5MTAyMDI1WhcNMjMwMjAx
MTAyMDI1WjAdMRswGQYDVQQDDBJWUE4uU0VSVkVSTkFNRS5DT00wggEiMA0GCSqG
SIb3DQEBAQUAA4IBDwAwggEKAoIBAQCzK4FbiFpxb0vHdc+L0jrF/mdJD/853ABM
fCxBmbZXRljz2ddAw+3cspE6eIq/kp8jEAwWE85gqlrPN1I4R5r00LvfIx3csbm1
68Oc6oB921Srv4qjDMjwc8C8IWcAJUD+DbapgXzV97dsgGNTWY0SOxebjzqeYzrq
bitWy6hKy5QuJOYr4NsVskknp0ORxQNoLYdSppog0lMybksTnEzMLXIf0FRWNveH
hKrUDbmp6M0hIEaH/07dqNkXZo8cPOIMCp7yCADWRSsHrrMLBLknJrPSeyl9nq9E
NxfEl+8aL2ToOBdc/F3b/Wz2oDSoXff+EcIbRkmZI9z15QDQkB+bAgMBAAGjgcEw
gb4wCQYDVR0TBAIwADAdBgNVHQ4EFgQUXKt9s5xorZgtPl8l5Ed1n23Kfk8wUQYD
VR0jBEowSIAUClstb8cXKfC2i/WXLiCArdYTziyhGqQYMBYxFDASBgNVBAMMC0Vh
c3ktUlNBIENBghQ2xrmWXtznkRk3SixAmrBvDhp3NjATBgNVHSUEDDAKBggrBgEF
BQcDATALBgNVHQ8EBAMCBaAwHQYDVR0RBBYwFIISVlBOLlNFUlZFUk5BTUUuQ09N
MA0GCSqGSIb3DQEBCwUAA4IBAQDF62MfngBCyR83p5NLGxMAh1xTV/kG704wdCRs
HDQblByAfKkCKJHwm6/KIYZ2dO+pfG35vfafV1gwEYJef3VTvHX9AcsOIafi0gUj
6scxMPqSklDOnHVZ2nhpje+UJvVOmLDagg21G7oDSJlhrnwelBtNXeceE1yzx7qn
JCHdPfGGFg17BlemVA614qDVNHBw1OkdZTr1SCULCopDZ8TFIxQedLl70f4GPHLW
zVo9FE1C9nDvPcGSiFMVtVanbQVu+8ilSzRMQu4eG70TYtuNDrjiRtd99iBUyh2A
gywEMPsKQgFR1gl8rGDPkr7a6pk01Wmi8MVOUcK+0zB3+bZs
-----END CERTIFICATE-----
